target datalayout = "e-m:e-p270:32:32-p271:32:32-p272:64:64-i64:64-i128:128-f80:128-n8:16:32:64-S128"
target triple = "x86_64-pc-linux-gnu"

@.str.24 = private unnamed_addr constant [39 x i8] c"could not update checksum of file \22%s\22\00", align 1
@.str.27 = private unnamed_addr constant [30 x i8] c"could not write file \22%s\22: %m\00", align 1
@.str.28 = private unnamed_addr constant [42 x i8] c"could not write file \22%s\22: wrote %d of %d\00", align 1

; Function Attrs: nounwind uwtable
define internal void @write_block(i32 noundef %0, ptr noundef %1, ptr noundef %2, ptr noundef %3) #0 {
  %5 = alloca i32, align 4
  %6 = alloca ptr, align 8
  %7 = alloca ptr, align 8
  %8 = alloca ptr, align 8
  %9 = alloca i32, align 4
  store i32 %0, ptr %5, align 4
  store ptr %1, ptr %6, align 8
  store ptr %2, ptr %7, align 8
  store ptr %3, ptr %8, align 8
  call void @llvm.lifetime.start.p0(i64 4, ptr %9) #9
  %10 = load i32, ptr %5, align 4
  %11 = load ptr, ptr %7, align 8
  %12 = call i64 @write(i32 noundef %10, ptr noundef %11, i64 noundef 8192)
  %13 = trunc i64 %12 to i32
  store i32 %13, ptr %9, align 4
  %14 = icmp ne i32 %13, 8192
  br i1 %14, label %15, label %30

15:                                               ; preds = %4
  %16 = load i32, ptr %9, align 4
  %17 = icmp slt i32 %16, 0
  br i1 %17, label %18, label %23

18:                                               ; preds = %15
  br label %19

19:                                               ; preds = %18
  %20 = load ptr, ptr %6, align 8
  call void (i32, i32, ptr, ...) @pg_log_generic(i32 noundef 4, i32 noundef 0, ptr noundef @.str.27, ptr noundef %20)
  call void @exit(i32 noundef 1) #10
  unreachable

21:                                               ; No predecessors!
  br label %22

22:                                               ; preds = %21
  br label %29

23:                                               ; preds = %15
  br label %24

24:                                               ; preds = %23
  %25 = load ptr, ptr %6, align 8
  %26 = load i32, ptr %9, align 4
  call void (i32, i32, ptr, ...) @pg_log_generic(i32 noundef 4, i32 noundef 0, ptr noundef @.str.28, ptr noundef %25, i32 noundef %26, i32 noundef 8192)
  call void @exit(i32 noundef 1) #10
  unreachable

27:                                               ; No predecessors!
  br label %28

28:                                               ; preds = %27
  br label %29

29:                                               ; preds = %28, %22
  br label %30

30:                                               ; preds = %29, %4
  %31 = load ptr, ptr %8, align 8
  %32 = load ptr, ptr %7, align 8
  %33 = call i32 @pg_checksum_update(ptr noundef %31, ptr noundef %32, i64 noundef 8192)
  %34 = icmp slt i32 %33, 0
  br i1 %34, label %35, label %40

35:                                               ; preds = %30
  br label %36

36:                                               ; preds = %35
  %37 = load ptr, ptr %6, align 8
  call void (i32, i32, ptr, ...) @pg_log_generic(i32 noundef 4, i32 noundef 0, ptr noundef @.str.24, ptr noundef %37)
  call void @exit(i32 noundef 1) #10
  unreachable

38:                                               ; No predecessors!
  br label %39

39:                                               ; preds = %38
  br label %40

40:                                               ; preds = %39, %30
  call void @llvm.lifetime.end.p0(i64 4, ptr %9) #9
  ret void
}