; Function Attrs: nounwind uwtable
define internal fastcc void @write_block(i32 noundef range(i32 -1, -2147483648) %0, ptr noundef %1, ptr noundef nonnull %2, ptr noundef nonnull %3) unnamed_addr #0 {
  %5 = tail call i64 @write(i32 noundef %0, ptr noundef nonnull %2, i64 noundef 8192) #10
  %6 = trunc i64 %5 to i32
  %.not = icmp eq i32 %6, 8192
  br i1 %.not, label %11, label %7

7:                                                ; preds = %4
  %8 = icmp slt i32 %6, 0
  br i1 %8, label %9, label %10

9:                                                ; preds = %7
  tail call void (i32, i32, ptr, ...) @pg_log_generic(i32 noundef 4, i32 noundef 0, ptr noundef nonnull @.str.27, ptr noundef %1) #10
  tail call void @exit(i32 noundef 1) #12
  unreachable

10:                                               ; preds = %7
  tail call void (i32, i32, ptr, ...) @pg_log_generic(i32 noundef 4, i32 noundef 0, ptr noundef nonnull @.str.28, ptr noundef %1, i32 noundef %6, i32 noundef 8192) #10
  tail call void @exit(i32 noundef 1) #12
  unreachable

11:                                               ; preds = %4
  %12 = tail call i32 @pg_checksum_update(ptr noundef nonnull %3, ptr noundef nonnull %2, i64 noundef 8192) #10
  %13 = icmp slt i32 %12, 0
  br i1 %13, label %14, label %15

14:                                               ; preds = %11
  tail call void (i32, i32, ptr, ...) @pg_log_generic(i32 noundef 4, i32 noundef 0, ptr noundef nonnull @.str.24, ptr noundef %1) #10
  tail call void @exit(i32 noundef 1) #12
  unreachable

15:                                               ; preds = %11
  ret void
}